target datalayout = "e-m:e-p270:32:32-p271:32:32-p272:64:64-i64:64-i128:128-f80:128-n8:16:32:64-S128"
target triple = "x86_64-unknown-linux-gnu"

%"class.icu_75::TimeZoneGenericNameMatchInfo" = type { ptr }
%"struct.icu_75::GMatchInfo" = type { ptr, i32, i32 }

; Function Attrs: mustprogress uwtable
define noundef i32 @_ZNK6icu_7528TimeZoneGenericNameMatchInfo14getMatchLengthEi(ptr noundef nonnull align 8 dereferenceable(8) %this, i32 noundef %index) #1 align 2 {
entry:
  %retval = alloca i32, align 4
  %this.addr = alloca ptr, align 8
  %index.addr = alloca i32, align 4
  %minfo = alloca ptr, align 8
  store ptr %this, ptr %this.addr, align 8
  store i32 %index, ptr %index.addr, align 4
  %this1 = load ptr, ptr %this.addr, align 8
  %fMatches = getelementptr inbounds %"class.icu_75::TimeZoneGenericNameMatchInfo", ptr %this1, i32 0, i32 0
  %0 = load ptr, ptr %fMatches, align 8
  %1 = load i32, ptr %index.addr, align 4
  %call = call noundef ptr @_ZNK6icu_757UVector9elementAtEi(ptr noundef nonnull align 8 dereferenceable(40) %0, i32 noundef %1)
  store ptr %call, ptr %minfo, align 8
  %2 = load ptr, ptr %minfo, align 8
  %cmp = icmp ne ptr %2, null
  br i1 %cmp, label %if.then, label %if.end

if.then:                                          ; preds = %entry
  %3 = load ptr, ptr %minfo, align 8
  %matchLength = getelementptr inbounds %"struct.icu_75::GMatchInfo", ptr %3, i32 0, i32 1
  %4 = load i32, ptr %matchLength, align 8
  store i32 %4, ptr %retval, align 4
  br label %return

if.end:                                           ; preds = %entry
  store i32 -1, ptr %retval, align 4
  br label %return

return:                                           ; preds = %if.end, %if.then
  %5 = load i32, ptr %retval, align 4
  ret i32 %5
}